(lp0
(lp1
F-2.05078125
aF106.744140625
aF1.46484375
aF-12.890625
aF0.5859375
aF-9.375
aF-17.578125
aF10.60546875
aa(lp2
F-1.46484375
aF106.744140625
aF1.46484375
aF-12.890625
aF0.5859375
aF-9.375
aF-17.578125
aF10.60546875
aa(lp3
F-2.05078125
aF106.744140625
aF1.46484375
aF-12.890625
aF0.5859375
aF-9.375
aF-17.578125
aF10.60546875
aa(lp4
F-1.7578125
aF106.744140625
aF1.46484375
aF-12.890625
aF0.5859375
aF-9.375
aF-17.578125
aF10.60546875
aa(lp5
F-1.46484375
aF106.744140625
aF1.7578125
aF-12.890625
aF0.87890625
aF-9.375
aF-17.578125
aF10.60546875
aa(lp6
F-1.7578125
aF104.13759765625
aF1.7578125
aF-12.3046875
aF5.56640625
aF6.15234375
aF-17.578125
aF10.60546875
aa(lp7
F-2.05078125
aF82.54052734375
aF1.7578125
aF8.49609375
aF4.39453125
aF29.00390625
aF-17.578125
aF10.60546875
aa(lp8
F-2.05078125
aF66.40478515625
aF0.29296875
aF25.1953125
aF4.39453125
aF38.671875
aF-17.578125
aF10.60546875
aa(lp9
F-2.05078125
aF55.17182617187501
aF-0.29296875
aF32.51953125
aF4.39453125
aF54.78515625
aF-17.578125
aF10.60546875
aa(lp10
F-2.05078125
aF48.96577148437501
aF-0.29296875
aF36.328125
aF-0.29296875
aF112.5
aF-17.578125
aF10.60546875
aa(lp11
F-1.171875
aF29.975244140624994
aF-1.46484375
aF49.51171875
aF-4.39453125
aF102.83203125
aF-17.578125
aF10.60546875
aa(lp12
F-2.05078125
aF22.90034179687501
aF-2.34375
aF36.328125
aF-1.171875
aF111.328125
aF-14.6484375
aF10.60546875
aa(lp13
F-2.05078125
aF16.69428710937501
aF-19.04296875
aF27.5390625
aF7.6171875
aF112.5
aF-9.08203125
aF10.60546875
aa(lp14
F-150.0
aF10.922656249999989
aF-21.97265625
aF26.66015625
aF4.98046875
aF101.66015625
aF-8.7890625
aF10.60546875
aa(lp15
F-150.0
aF10.612353515624989
aF-29.296875
aF26.66015625
aF-7.03125
aF88.76953125
aF-8.7890625
aF10.60546875
aa(lp16
F-150.0
aF9.433203125000006
aF-36.9140625
aF28.125
aF5.2734375
aF104.296875
aF-9.375
aF10.60546875
aa(lp17
F-150.0
aF8.750537109374989
aF-36.62109375
aF29.58984375
aF13.18359375
aF109.5703125
aF-9.375
aF10.60546875
aa(lp18
F-150.0
aF9.060839843749989
aF-18.45703125
aF30.17578125
aF11.71875
aF112.5
aF-9.375
aF10.60546875
aa(lp19
F-150.0
aF9.060839843749989
aF11.42578125
aF35.7421875
aF6.4453125
aF112.5
aF-9.375
aF10.60546875
aa(lp20
F-150.0
aF8.626416015625011
aF27.24609375
aF41.6015625
aF6.73828125
aF109.27734375
aF-9.375
aF10.60546875
aa(lp21
F-150.0
aF8.378173828125
aF20.80078125
aF43.359375
aF6.15234375
aF106.93359375
aF-9.375
aF10.60546875
aa(lp22
F-150.0
aF8.316113281250011
aF-2.34375
aF43.359375
aF5.859375
aF106.93359375
aF-9.375
aF10.60546875
aa(lp23
F-150.0
aF7.323144531249994
aF-33.984375
aF44.53125
aF7.91015625
aF112.5
aF-9.375
aF10.60546875
aa(lp24
F-150.0
aF5.58544921875
aF-39.55078125
aF47.4609375
aF1.46484375
aF112.5
aF-9.375
aF10.60546875
aa(lp25
F-150.0
aF5.58544921875
aF-45.99609375
aF46.58203125
aF11.42578125
aF112.5
aF-9.375
aF10.60546875
aa(lp26
F-150.0
aF6.2060546875
aF-47.16796875
aF48.6328125
aF11.1328125
aF112.5
aF-9.375
aF5.91796875
aa(lp27
F-150.0
aF5.399267578125006
aF-48.6328125
aF51.5625
aF10.546875
aF112.5
aF-14.6484375
aF3.8671875
aa(lp28
F-150.0
aF2.6686035156249943
aF-48.6328125
aF54.4921875
aF7.6171875
aF112.5
aF-29.58984375
aF3.8671875
aa(lp29
F-150.0
aF-0.8067871093749943
aF-48.6328125
aF61.81640625
aF4.39453125
aF112.5
aF-33.69140625
aF3.8671875
aa(lp30
F-150.0
aF-0.310302734375
aF-48.6328125
aF69.140625
aF3.22265625
aF110.15625
aF-33.69140625
aF4.16015625
aa(lp31
F-150.0
aF-0.310302734375
aF-48.6328125
aF72.0703125
aF3.22265625
aF107.2265625
aF-33.69140625
aF4.16015625
aa(lp32
F-150.0
aF-10.488232421874997
aF-45.99609375
aF70.01953125
aF-5.859375
aF112.5
aF-33.69140625
aF4.16015625
aa(lp33
F-150.0
aF-9.184960937499994
aF-45.99609375
aNaF0.87890625
aF110.44921875
aF-33.10546875
aF4.16015625
aa(lp34
F-150.0
aF-1.1791503906249972
aF-47.16796875
aF77.63671875
aF0.0
aF101.953125
aF-33.69140625
aF4.16015625
aa(lp35
F-150.0
aF-1.1791503906249972
aF-46.875
aF86.1328125
aF0.29296875
aF93.45703125
aF-33.69140625
aF4.16015625
aa(lp36
F-150.0
aF-1.1791503906249972
aF-46.875
aF91.40625
aF0.5859375
aF88.4765625
aF-33.10546875
aF4.16015625
aa(lp37
F-150.0
aF-1.1791503906249972
aF-46.875
aF95.80078125
aF0.5859375
aF83.203125
aF-33.10546875
aF4.16015625
aa(lp38
F-150.0
aF-1.1791503906249972
aF-48.6328125
aF96.97265625
aF3.22265625
aF82.32421875
aF-33.10546875
aF3.28125
aa(lp39
F-150.0
aF-0.12412109375000568
aF-48.6328125
aF97.265625
aF3.515625
aF82.32421875
aF-33.10546875
aF-0.52734375
aa(lp40
F-150.0
aF-0.06206054687500284
aF-48.6328125
aF97.265625
aF3.80859375
aF82.03125
aF-33.10546875
aF-0.8203125
aa(lp41
F-150.0
aF0.0
aF-48.6328125
aF97.265625
aF3.80859375
aF82.03125
aF-33.10546875
aF-1.11328125
aa(lp42
F-150.0
aF0.06206054687500284
aF-48.6328125
aF97.265625
aF3.80859375
aF82.03125
aF-33.10546875
aF-1.11328125
aa(lp43
F-150.0
aF0.24824218749999716
aF-48.6328125
aF97.265625
aF4.39453125
aF82.03125
aF-33.10546875
aF-2.578125
aa(lp44
F-150.0
aF0.9929687499999886
aF-49.21875
aF97.265625
aF4.98046875
aF82.03125
aF-33.10546875
aF-3.45703125
aa(lp45
F-150.0
aF1.2412109375
aF-48.046875
aF96.38671875
aF2.9296875
aF82.32421875
aF-31.93359375
aF-3.1640625
aa(lp46
F-150.0
aNaF-48.6328125
aF92.87109375
aF2.9296875
aF86.71875
aF-31.93359375
aF13.2421875
aa(lp47
F-150.0
aF1.3653320312500057
aF-48.6328125
aF90.52734375
aF3.22265625
aF89.35546875
aF-31.93359375
aF24.375
aa(lp48
F-150.0
aF1.3653320312500057
aF-48.6328125
aF87.59765625
aF3.515625
aF92.578125
aF-31.93359375
aF38.73046875
aa(lp49
F-150.0
aF1.3653320312500057
aF-49.51171875
aF86.71875
aF4.1015625
aF93.75
aF-31.93359375
aF47.2265625
aa(lp50
F-150.0
aF1.3653320312500057
aF-49.51171875
aF86.42578125
aF4.39453125
aF94.62890625
aF-31.93359375
aF49.86328125
aa(lp51
F-150.0
aF-1.86181640625
aF-53.61328125
aF62.6953125
aF5.2734375
aF112.5
aF-31.93359375
aF49.86328125
aa(lp52
F-150.0
aF-2.544482421875003
aF-56.25
aF40.72265625
aF10.546875
aF112.20703125
aF-31.93359375
aF49.86328125
aa(lp53
F-150.0
aF-2.3583007812499943
aF-64.74609375
aF20.5078125
aF17.28515625
aF56.8359375
aF-29.58984375
aF49.86328125
aa(lp54
F-150.0
aF-4.716601562500003
aF-67.67578125
aF18.45703125
aF26.07421875
aF36.328125
aF-29.58984375
aF49.86328125
aa(lp55
F-150.0
aF-4.34423828125
aF-34.27734375
aF22.55859375
aF34.86328125
aF45.1171875
aF-29.58984375
aF49.86328125
aa(lp56
F-150.0
aF-4.033935546875
aF-8.203125
aF26.953125
aF36.62109375
aF45.703125
aF-29.58984375
aF49.86328125
aa(lp57
F-150.0
aF-4.902783203124997
aF6.73828125
aF34.27734375
aF25.78125
aF44.23828125
aF-23.14453125
aF49.86328125
aa(lp58
F-150.0
aF-4.716601562500003
aF13.18359375
aF33.984375
aF-1.171875
aF63.8671875
aF-1.171875
aF49.86328125
aa(lp59
F-150.0
aF-2.6065429687500057
aF21.97265625
aF34.86328125
aF-14.94140625
aF83.203125
aF19.04296875
aF49.86328125
aa(lp60
F-150.0
aF-2.6065429687500057
aF29.58984375
aF44.53125
aF-23.4375
aF90.8203125
aF29.8828125
aF49.86328125
aa(lp61
F-150.0
aF-2.0479980468749943
aF28.7109375
aF48.6328125
aF-14.35546875
aF98.73046875
aF32.2265625
aF49.86328125
aa(lp62
F-150.0
aF-1.1791503906249972
aF27.83203125
aF48.6328125
aF-12.890625
aF100.48828125
aF32.2265625
aF49.86328125
aa(lp63
F-150.0
aF-1.1170898437499943
aF25.78125
aF53.61328125
aF-4.1015625
aF104.296875
aF32.2265625
aF49.86328125
aa(lp64
F-150.0
aF-0.6826660156250028
aF21.97265625
aF61.81640625
aF-2.34375
aF93.1640625
aF31.93359375
aF49.86328125
aa(lp65
F-150.0
aF7.385205078125011
aF21.97265625
aF62.109375
aF-3.80859375
aF91.11328125
aF31.93359375
aF49.86328125
aa(lp66
F-150.0
aF11.729443359375011
aF22.55859375
aF64.453125
aF-2.9296875
aF89.94140625
aF32.2265625
aF47.51953125
aa(lp67
F-150.0
aF12.474169921874989
aF24.0234375
aF66.50390625
aF-7.91015625
aF90.52734375
aF32.2265625
aNaa(lp68
F-150.0
aF12.412109375
aF24.0234375
aF52.734375
aF-5.56640625
aF108.3984375
aF31.34765625
aF27.59765625
aa(lp69
F-150.0
aF7.199023437499989
aF21.09375
aF36.328125
aF-8.49609375
aF112.5
aF24.0234375
aF27.3046875
aa(lp70
F-150.0
aF6.82666015625
aF3.22265625
aF33.3984375
aF-7.03125
aF112.5
aF-3.80859375
aF27.3046875
aa(lp71
F-150.0
aF17.873437499999994
aF-41.30859375
aF48.6328125
aF13.18359375
aF106.640625
aF-28.7109375
aF25.25390625
aa(lp72
F-150.0
aF26.31367187500001
aF-49.51171875
aF48.6328125
aF26.3671875
aF104.58984375
aF-28.41796875
aF24.9609375
aa(lp73
F-150.0
aF31.09233398437499
aF-48.6328125
aF48.92578125
aF27.24609375
aF102.5390625
aF-28.7109375
aF24.9609375
aa(lp74
F-150.0
aF35.93305664062501
aF-48.33984375
aF48.92578125
aF28.7109375
aF101.3671875
aF-28.7109375
aF24.9609375
aa(lp75
F-150.0
aF39.16020507812499
aF-47.75390625
aF48.6328125
aF29.00390625
aF101.07421875
aF-28.7109375
aF24.9609375
aa(lp76
F-150.0
aF41.394384765625006
aF-47.75390625
aF49.21875
aF30.46875
aF99.609375
aF-28.7109375
aF24.9609375
aa(lp77
F-150.0
aF42.014990234375006
aF-47.75390625
aF51.5625
aF33.984375
aF98.73046875
aF-28.7109375
aF25.25390625
aa(lp78
F-150.0
aF42.44941406250001
aF-47.16796875
aF50.390625
aF33.984375
aF99.0234375
aF-29.00390625
aF24.9609375
aa(lp79
F131.54296875
aF42.57353515624999
aF-45.1171875
aF49.21875
aF33.69140625
aF99.609375
aF-29.00390625
aF25.25390625
aa(lp80
F131.54296875
aF42.635595703125006
aF-43.06640625
aF48.046875
aF30.76171875
aF100.48828125
aF-28.7109375
aF25.546875
aa(lp81
F131.54296875
aF42.635595703125006
aF-42.7734375
aF45.703125
aF29.8828125
aF102.24609375
aF-28.41796875
aF36.38671875
aa(lp82
F129.78515625
aF42.697656249999994
aF-41.30859375
aF42.48046875
aF27.83203125
aF104.296875
aF-25.1953125
aF45.46875
aa(lp83
F131.54296875
aF42.75971679687501
aF-41.30859375
aF41.6015625
aF28.41796875
aF105.46875
aF-23.4375
aF52.5
aa(lp84
F131.54296875
aF42.75971679687501
aF-41.30859375
aF41.30859375
aF29.00390625
aF106.93359375
aF-21.97265625
aF53.37890625
aa(lp85
F131.54296875
aF13.591259765625011
aF-41.6015625
aF44.23828125
aF22.265625
aF112.5
aF-20.80078125
aF53.671875
aa(lp86
F131.54296875
aF8.6884765625
aF-32.51953125
aF40.72265625
aF24.0234375
aF110.7421875
aF-20.80078125
aF53.671875
aa(lp87
F131.54296875
aF8.6884765625
aF12.01171875
aF38.37890625
aF12.3046875
aF110.44921875
aF-20.80078125
aF53.671875
aa(lp88
F131.54296875
aF8.6884765625
aF27.5390625
aF43.359375
aF-3.515625
aF105.46875
aF15.234375
aF53.671875
aa(lp89
F131.54296875
aF15.204833984375
aF40.72265625
aF44.23828125
aF-19.04296875
aF105.17578125
aF27.83203125
aF53.671875
aa(lp90
F132.71484375
aF29.16845703125
aF48.6328125
aF44.23828125
aF-24.609375
aF106.34765625
aF27.24609375
aF53.671875
aa(lp91
F131.54296875
aF31.526757812499994
aF48.046875
aF42.1875
aF-24.31640625
aF104.296875
aF29.296875
aF42.5390625
aa(lp92
F-150.0
aF31.40263671874999
aF47.16796875
aF41.89453125
aF-28.125
aF104.296875
aF29.58984375
aF28.18359375
aa(lp93
F-150.0
aF15.018652343750006
aF42.48046875
aF40.4296875
aF-28.41796875
aF112.5
aF25.1953125
aF27.890625
aa(lp94
F-150.0
aF9.681445312499989
aF-13.4765625
aF36.328125
aF-4.6875
aF111.9140625
aF-2.05078125
aF27.890625
aa(lp95
F-150.0
aF13.280957031250011
aF-41.89453125
aF45.1171875
aF5.56640625
aF108.3984375
aF-8.7890625
aF28.18359375
aa(lp96
F-150.0
aF13.529199218749994
aF-41.015625
aF56.54296875
aF14.0625
aF86.1328125
aF-6.4453125
aF28.18359375
aa(lp97
F-150.0
aF12.970654296875011
aF-41.015625
aF55.95703125
aF12.890625
aF88.76953125
aF-6.4453125
aF28.18359375
aa(lp98
F-150.0
aF12.970654296875011
aF-41.015625
aF55.95703125
aF12.59765625
aF88.4765625
aF-6.4453125
aF28.18359375
aa(lp99
F-150.0
aF13.777441406250006
aF-41.015625
aF56.25
aF12.3046875
aF86.71875
aF-6.4453125
aF28.18359375
aa(lp100
F-150.0
aF15.018652343750006
aF-41.015625
aF57.71484375
aF12.59765625
aF81.15234375
aF-16.69921875
aF28.18359375
aa(lp101
F-150.0
aF15.639257812500006
aF-43.9453125
aF58.88671875
aF18.1640625
aF79.6875
aF-32.2265625
aF28.18359375
aa(lp102
F-150.0
aF27.182519531249994
aF-44.53125
aF48.92578125
aF24.609375
aF83.203125
aF-37.20703125
aF28.18359375
aa(lp103
F129.78515625
aF34.13330078125
aF-36.62109375
aF39.55078125
aF29.296875
aF87.3046875
aF-40.4296875
aF28.18359375
aa(lp104
F149.70703125
aF44.497412109375006
aF-27.24609375
aF25.1953125
aF27.5390625
aF92.28515625
aF-41.015625
aF28.18359375
aa(lp105
F149.70703125
aF50.393164062500006
aF-22.8515625
aF18.1640625
aF26.66015625
aF94.62890625
aF-41.89453125
aF28.18359375
aa(lp106
F149.70703125
aF52.37910156250001
aF-22.55859375
aF17.578125
aF26.66015625
aF94.62890625
aF-41.89453125
aF27.890625
aa(lp107
F149.70703125
aF54.427099609375006
aF-22.55859375
aF16.9921875
aF27.24609375
aF94.62890625
aF-41.6015625
aF27.890625
aa(lp108
F149.70703125
aF56.10273437500001
aF-22.55859375
aF16.40625
aF28.125
aF94.62890625
aF-41.6015625
aF27.890625
aa(lp109
F149.70703125
aF59.764306640624994
aF-22.265625
aF14.0625
aF28.7109375
aF94.921875
aF-41.6015625
aF27.890625
aa(lp110
F149.70703125
aF61.936425781249994
aF-21.97265625
aF11.71875
aF28.7109375
aF95.21484375
aF-41.6015625
aF27.890625
aa(lp111
F149.70703125
aF62.68115234375
aF-20.21484375
aF10.83984375
aF28.7109375
aF95.5078125
aF-39.55078125
aF27.890625
aa(lp112
F149.70703125
aF63.487939453124994
aF-17.87109375
aF9.66796875
aF27.5390625
aF96.09375
aF-39.55078125
aF28.18359375
aa(lp113
F149.70703125
aF65.53593749999999
aF-18.1640625
aF2.9296875
aF27.24609375
aF100.78125
aF-39.55078125
aF30.234375
aa(lp114
F149.70703125
aF104.19965820312498
aF-0.5859375
aF-54.4921875
aF19.04296875
aF109.27734375
aF-34.5703125
aF29.6484375
aa(lp115
F149.70703125
aF104.075537109375
aF-1.171875
aF-55.078125
aF19.04296875
aF109.27734375
aF-34.27734375
aF29.6484375
aa(lp116
F149.70703125
aF100.351904296875
aF-2.34375
aF-43.06640625
aF19.04296875
aF107.51953125
aF-34.27734375
aF29.35546875
aa(lp117
F149.70703125
aF67.211572265625
aF-32.2265625
aF4.6875
aF44.23828125
aF97.55859375
aF-35.15625
aF29.6484375
aa(lp118
F149.70703125
aF75.65180664062498
aF-23.4375
aF-11.71875
aF32.2265625
aF103.41796875
aF-35.15625
aF29.6484375
aa(lp119
F149.70703125
aF76.955078125
aF-2.34375
aF-14.94140625
aF12.3046875
aF107.2265625
aF-35.15625
aF31.69921875
aa(lp120
F149.70703125
aF80.30634765624998
aF-2.34375
aF-21.6796875
aF13.18359375
aF110.7421875
aF-32.2265625
aF48.69140625
aa(lp121
F149.70703125
aF77.265380859375
aF-2.9296875
aF-21.97265625
aF12.59765625
aF112.5
aF-30.46875
aF51.328125
aa(lp122
F149.70703125
aF42.077050781249994
aF3.22265625
aF13.4765625
aF2.9296875
aF112.5
aF-30.17578125
aF51.62109375
aa(lp123
F149.70703125
aF28.17548828125001
aF72.0703125
aF40.4296875
aF-33.3984375
aF104.296875
aF-7.03125
aF51.62109375
aa(lp124
F149.70703125
aF18.742285156250006
aF53.02734375
aF44.53125
aF-13.18359375
aF107.51953125
aF17.87109375
aF52.20703125
aa(lp125
F149.70703125
aF25.69306640625001
aF64.74609375
aF42.48046875
aF-23.14453125
aF108.3984375
aF31.34765625
aF52.20703125
aa(lp126
F149.70703125
aF37.422509765624994
aF70.01953125
aF44.23828125
aF-34.5703125
aF107.2265625
aF41.015625
aF47.51953125
aa(lp127
F149.70703125
aF38.10517578125001
aF62.6953125
aF42.48046875
aF-30.17578125
aF106.93359375
aF41.89453125
aF31.69921875
aa(lp128
F149.70703125
aF35.870996093749994
aF62.109375
aF39.84375
aF-29.58984375
aF106.34765625
aF41.89453125
aF29.6484375
aa(lp129
F131.54296875
aF23.769189453124994
aF62.98828125
aF27.83203125
aF-32.51953125
aF107.8125
aF41.6015625
aF29.35546875
aa(lp130
F131.54296875
aF22.341796875
aF40.72265625
aF17.578125
aF-38.96484375
aF47.16796875
aF41.6015625
aF29.35546875
aa(lp131
F131.54296875
aF28.237548828125
aF-1.46484375
aF17.578125
aF-43.06640625
aF15.234375
aF41.6015625
aF29.6484375
aa(lp132
F131.54296875
aF43.876806640625006
aF-0.29296875
aF17.87109375
aF-43.06640625
aF10.546875
aF41.6015625
aF29.6484375
aa(lp133
F131.8359375
aF44.12504882812499
aF-5.56640625
aF21.38671875
aF-11.1328125
aF29.296875
aF37.79296875
aF30.52734375
aa(lp134
F131.54296875
aF45.180078124999994
aF-4.1015625
aF17.87109375
aF-4.98046875
aF27.24609375
aF36.9140625
aF31.69921875
aa(lp135
F131.8359375
aF66.094482421875
aF-3.22265625
aF2.05078125
aF-15.8203125
aF16.69921875
aF21.97265625
aF32.87109375
aa(lp136
F131.54296875
aF71.74199218749999
aF-2.34375
aF8.7890625
aF-13.76953125
aF10.546875
aF12.01171875
aF32.87109375
aa(lp137
F131.54296875
aF85.76767578125
aF-3.22265625
aF-2.34375
aF-13.18359375
aF9.66796875
aF9.9609375
aF32.87109375
aa(lp138
F131.54296875
aF104.447900390625
aF1.171875
aF-21.38671875
aF-16.40625
aF9.08203125
aF8.49609375
aF32.87109375
aa(lp139
F132.71484375
aF106.18559570312499
aF4.39453125
aF-16.69921875
aF-19.04296875
aF2.34375
aF7.32421875
aF32.87109375
aa(lp140
F131.54296875
aF106.18559570312499
aF5.56640625
aF-15.234375
aF-1.46484375
aF-0.87890625
aF-8.49609375
aF32.87109375
aa(lp141
F131.54296875
aF106.24765625
aF5.859375
aF-12.890625
aF-0.5859375
aF-7.91015625
aF-8.49609375
aF32.87109375
aa(lp142
F131.54296875
aF106.24765625
aF5.859375
aF-12.890625
aF-0.5859375
aF-7.91015625
aF-8.49609375
aF32.87109375
aa(lp143
F131.54296875
aF106.24765625
aF5.859375
aF-12.890625
aF-0.5859375
aF-7.91015625
aF-8.49609375
aF32.87109375
aa(lp144
F131.54296875
aF106.24765625
aF5.859375
aF-12.890625
aF-0.5859375
aF-7.91015625
aF-8.49609375
aF32.87109375
aa.